target datalayout = "e-m:e-p270:32:32-p271:32:32-p272:64:64-i64:64-i128:128-f80:128-n8:16:32:64-S128"
target triple = "x86_64-pc-linux-gnu"

%"struct.pybind11_tests::test_cpp_conduit::Traveler" = type { %"class.std::__cxx11::basic_string" }
%"class.std::__cxx11::basic_string" = type { %"struct.std::__cxx11::basic_string<char>::_Alloc_hider", i64, %union.anon }
%"struct.std::__cxx11::basic_string<char>::_Alloc_hider" = type { ptr }
%union.anon = type { i64, [8 x i8] }
%"struct.pybind11_tests::test_cpp_conduit::PremiumTraveler" = type <{ %"struct.pybind11_tests::test_cpp_conduit::Traveler", i32, [4 x i8] }>

; Function Attrs: mustprogress nounwind uwtable
define linkonce_odr hidden noundef ptr @_ZN19pybind11_conduit_v126get_type_pointer_ephemeralIN14pybind11_tests16test_cpp_conduit15PremiumTravelerEEEPT_P7_object(ptr noundef %0) #0 comdat {
  %2 = alloca ptr, align 8
  %3 = alloca ptr, align 8
  %4 = alloca ptr, align 8
  %5 = alloca i32, align 4
  store ptr %0, ptr %3, align 8, !tbaa !3
  call void @llvm.lifetime.start.p0(i64 8, ptr %4) #4
  %6 = load ptr, ptr %3, align 8, !tbaa !3
  %7 = call noundef ptr @_ZN19pybind11_conduit_v125get_raw_pointer_ephemeralEP7_objectPKSt9type_info(ptr noundef %6, ptr noundef @_ZTIN14pybind11_tests16test_cpp_conduit15PremiumTravelerE)
  store ptr %7, ptr %4, align 8, !tbaa !10
  %8 = load ptr, ptr %4, align 8, !tbaa !10
  %9 = icmp eq ptr %8, null
  br i1 %9, label %10, label %11

10:                                               ; preds = %1
  store ptr null, ptr %2, align 8
  store i32 1, ptr %5, align 4
  br label %13

11:                                               ; preds = %1
  %12 = load ptr, ptr %4, align 8, !tbaa !10
  store ptr %12, ptr %2, align 8
  store i32 1, ptr %5, align 4
  br label %13

13:                                               ; preds = %11, %10
  call void @llvm.lifetime.end.p0(i64 8, ptr %4) #4
  %14 = load ptr, ptr %2, align 8
  ret ptr %14
}

; Function Attrs: mustprogress nounwind uwtable
define hidden ptr @wrapGetPoints(ptr noundef %0, ptr noundef %1) #0 {
  %3 = alloca ptr, align 8
  %4 = alloca ptr, align 8
  %5 = alloca ptr, align 8
  %6 = alloca ptr, align 8
  %7 = alloca i32, align 4
  store ptr %0, ptr %4, align 8, !tbaa !3
  store ptr %1, ptr %5, align 8, !tbaa !3
  call void @llvm.lifetime.start.p0(i64 8, ptr %6) #4
  %8 = load ptr, ptr %5, align 8, !tbaa !3
  %9 = call noundef ptr @_ZN19pybind11_conduit_v126get_type_pointer_ephemeralIN14pybind11_tests16test_cpp_conduit15PremiumTravelerEEEPT_P7_object(ptr noundef %8)
  store ptr %9, ptr %6, align 8, !tbaa !13
  %10 = load ptr, ptr %6, align 8, !tbaa !13
  %11 = icmp eq ptr %10, null
  br i1 %11, label %12, label %13

12:                                               ; preds = %2
  store ptr null, ptr %3, align 8
  store i32 1, ptr %7, align 4
  br label %19

13:                                               ; preds = %2
  %14 = load ptr, ptr %6, align 8, !tbaa !13
  %15 = getelementptr inbounds nuw %"struct.pybind11_tests::test_cpp_conduit::PremiumTraveler", ptr %14, i32 0, i32 1
  %16 = load i32, ptr %15, align 8, !tbaa !15
  %17 = sext i32 %16 to i64
  %18 = call ptr @PyLong_FromLong(i64 noundef %17)
  store ptr %18, ptr %3, align 8
  store i32 1, ptr %7, align 4
  br label %19

19:                                               ; preds = %13, %12
  call void @llvm.lifetime.end.p0(i64 8, ptr %6) #4
  %20 = load ptr, ptr %3, align 8
  ret ptr %20
}