; Function Attrs: mustprogress nounwind uwtable
define hidden ptr @wrapGetPoints(ptr readnone captures(none) %0, ptr noundef %1) #0 {
  %3 = tail call noundef ptr @_ZN19pybind11_conduit_v125get_raw_pointer_ephemeralEP7_objectPKSt9type_info(ptr noundef %1, ptr noundef nonnull @_ZTIN14pybind11_tests16test_cpp_conduit15PremiumTravelerE)
  %4 = icmp eq ptr %3, null
  br i1 %4, label %10, label %5

5:                                                ; preds = %2
  %6 = getelementptr inbounds nuw i8, ptr %3, i64 32
  %7 = load i32, ptr %6, align 8, !tbaa !11
  %8 = sext i32 %7 to i64
  %9 = tail call ptr @PyLong_FromLong(i64 noundef %8) #3
  br label %10

10:                                               ; preds = %2, %5
  %.0 = phi ptr [ %9, %5 ], [ null, %2 ]
  ret ptr %.0
}